target datalayout = "e-m:e-p270:32:32-p271:32:32-p272:64:64-i64:64-i128:128-f80:128-n8:16:32:64-S128"
target triple = "x86_64-pc-linux-gnu"

%"class.std::__cxx11::basic_string" = type { %"struct.std::__cxx11::basic_string<char>::_Alloc_hider", i64, %union.anon }
%"struct.std::__cxx11::basic_string<char>::_Alloc_hider" = type { ptr }
%union.anon = type { i64, [8 x i8] }
%"class.open_spiel::battleship::CellAndDirection" = type { i32, %"struct.open_spiel::battleship::Cell" }
%"struct.open_spiel::battleship::Cell" = type { i32, i32 }

@.str = private unnamed_addr constant [146 x i8] c"generated/home/dtcxzyw/WorkSpace/Projects/compilers/llvm-opt-benchmark/bench/openspiel/open_spiel/open_spiel/games/battleship/battleship_types.cc\00", align 1
@.str.1 = private unnamed_addr constant [2 x i8] c":\00", align 1
@.str.2 = private unnamed_addr constant [2 x i8] c" \00", align 1
@.str.5 = private unnamed_addr constant [4 x i8] c" = \00", align 1
@.str.10 = private unnamed_addr constant [19 x i8] c"tl_corner.row >= 0\00", align 1
@.str.11 = private unnamed_addr constant [15 x i8] c"\0Atl_corner.row\00", align 1
@.str.12 = private unnamed_addr constant [7 x i8] c", 0 = \00", align 1
@.str.13 = private unnamed_addr constant [19 x i8] c"tl_corner.col >= 0\00", align 1
@.str.14 = private unnamed_addr constant [15 x i8] c"\0Atl_corner.col\00", align 1

; Function Attrs: mustprogress uwtable
define void @_ZN10open_spiel10battleship16CellAndDirectionC2ENS1_9DirectionERKNS0_4CellE(ptr noundef nonnull align 4 dereferenceable(12) %0, i32 noundef %1, ptr noundef nonnull align 4 dereferenceable(8) %2) unnamed_addr #4 align 2 personality ptr @__gxx_personality_v0 {
  %4 = alloca ptr, align 8
  %5 = alloca i32, align 4
  %6 = alloca ptr, align 8
  %7 = alloca i32, align 4
  %8 = alloca i32, align 4
  %9 = alloca %"class.std::__cxx11::basic_string", align 8
  %10 = alloca i32, align 4
  %11 = alloca ptr, align 8
  %12 = alloca i32, align 4
  %13 = alloca i32, align 4
  %14 = alloca i32, align 4
  %15 = alloca %"class.std::__cxx11::basic_string", align 8
  %16 = alloca i32, align 4
  store ptr %0, ptr %4, align 8
  store i32 %1, ptr %5, align 4
  store ptr %2, ptr %6, align 8
  %17 = load ptr, ptr %4, align 8
  %18 = getelementptr inbounds nuw %"class.open_spiel::battleship::CellAndDirection", ptr %17, i32 0, i32 0
  %19 = load i32, ptr %5, align 4
  store i32 %19, ptr %18, align 4
  %20 = getelementptr inbounds nuw %"class.open_spiel::battleship::CellAndDirection", ptr %17, i32 0, i32 1
  %21 = load ptr, ptr %6, align 8
  call void @llvm.memcpy.p0.p0.i64(ptr align 4 %20, ptr align 4 %21, i64 8, i1 false)
  br label %22

22:                                               ; preds = %3
  %23 = load ptr, ptr %6, align 8
  %24 = getelementptr inbounds nuw %"struct.open_spiel::battleship::Cell", ptr %23, i32 0, i32 0
  %25 = load i32, ptr %24, align 4
  store i32 %25, ptr %7, align 4
  store i32 0, ptr %8, align 4
  %26 = load i32, ptr %7, align 4
  %27 = load i32, ptr %8, align 4
  %28 = icmp sge i32 %26, %27
  br i1 %28, label %35, label %29

29:                                               ; preds = %22
  store i32 111, ptr %10, align 4
  call void @_ZN10open_spiel8internal11SpielStrCatIJRA146_KcRA2_S2_iS6_RA19_S2_RA15_S2_RA4_S2_RiRA7_S2_SD_EEENSt7__cxx1112basic_stringIcSt11char_traitsIcESaIcEEEDpOT_(ptr dead_on_unwind writable sret(%"class.std::__cxx11::basic_string") align 8 %9, ptr noundef nonnull align 1 dereferenceable(146) @.str, ptr noundef nonnull align 1 dereferenceable(2) @.str.1, ptr noundef nonnull align 4 dereferenceable(4) %10, ptr noundef nonnull align 1 dereferenceable(2) @.str.2, ptr noundef nonnull align 1 dereferenceable(19) @.str.10, ptr noundef nonnull align 1 dereferenceable(15) @.str.11, ptr noundef nonnull align 1 dereferenceable(4) @.str.5, ptr noundef nonnull align 4 dereferenceable(4) %7, ptr noundef nonnull align 1 dereferenceable(7) @.str.12, ptr noundef nonnull align 4 dereferenceable(4) %8)
  invoke void @_ZN10open_spiel15SpielFatalErrorERKNSt7__cxx1112basic_stringIcSt11char_traitsIcESaIcEEE(ptr noundef nonnull align 8 dereferenceable(32) %9) #12
          to label %30 unwind label %31

30:                                               ; preds = %29
  unreachable

31:                                               ; preds = %29
  %32 = landingpad { ptr, i32 }
          cleanup
  %33 = extractvalue { ptr, i32 } %32, 0
  store ptr %33, ptr %11, align 8
  %34 = extractvalue { ptr, i32 } %32, 1
  store i32 %34, ptr %12, align 4
  call void @_ZNSt7__cxx1112basic_stringIcSt11char_traitsIcESaIcEED1Ev(ptr noundef nonnull align 8 dereferenceable(32) %9) #3
  br label %52

35:                                               ; preds = %22
  br label %36

36:                                               ; preds = %35
  br label %37

37:                                               ; preds = %36
  %38 = load ptr, ptr %6, align 8
  %39 = getelementptr inbounds nuw %"struct.open_spiel::battleship::Cell", ptr %38, i32 0, i32 1
  %40 = load i32, ptr %39, align 4
  store i32 %40, ptr %13, align 4
  store i32 0, ptr %14, align 4
  %41 = load i32, ptr %13, align 4
  %42 = load i32, ptr %14, align 4
  %43 = icmp sge i32 %41, %42
  br i1 %43, label %50, label %44

44:                                               ; preds = %37
  store i32 112, ptr %16, align 4
  call void @_ZN10open_spiel8internal11SpielStrCatIJRA146_KcRA2_S2_iS6_RA19_S2_RA15_S2_RA4_S2_RiRA7_S2_SD_EEENSt7__cxx1112basic_stringIcSt11char_traitsIcESaIcEEEDpOT_(ptr dead_on_unwind writable sret(%"class.std::__cxx11::basic_string") align 8 %15, ptr noundef nonnull align 1 dereferenceable(146) @.str, ptr noundef nonnull align 1 dereferenceable(2) @.str.1, ptr noundef nonnull align 4 dereferenceable(4) %16, ptr noundef nonnull align 1 dereferenceable(2) @.str.2, ptr noundef nonnull align 1 dereferenceable(19) @.str.13, ptr noundef nonnull align 1 dereferenceable(15) @.str.14, ptr noundef nonnull align 1 dereferenceable(4) @.str.5, ptr noundef nonnull align 4 dereferenceable(4) %13, ptr noundef nonnull align 1 dereferenceable(7) @.str.12, ptr noundef nonnull align 4 dereferenceable(4) %14)
  invoke void @_ZN10open_spiel15SpielFatalErrorERKNSt7__cxx1112basic_stringIcSt11char_traitsIcESaIcEEE(ptr noundef nonnull align 8 dereferenceable(32) %15) #12
          to label %45 unwind label %46

45:                                               ; preds = %44
  unreachable

46:                                               ; preds = %44
  %47 = landingpad { ptr, i32 }
          cleanup
  %48 = extractvalue { ptr, i32 } %47, 0
  store ptr %48, ptr %11, align 8
  %49 = extractvalue { ptr, i32 } %47, 1
  store i32 %49, ptr %12, align 4
  call void @_ZNSt7__cxx1112basic_stringIcSt11char_traitsIcESaIcEED1Ev(ptr noundef nonnull align 8 dereferenceable(32) %15) #3
  br label %52

50:                                               ; preds = %37
  br label %51

51:                                               ; preds = %50
  ret void

52:                                               ; preds = %46, %31
  %53 = load ptr, ptr %11, align 8
  %54 = load i32, ptr %12, align 4
  %55 = insertvalue { ptr, i32 } poison, ptr %53, 0
  %56 = insertvalue { ptr, i32 } %55, i32 %54, 1
  resume { ptr, i32 } %56
}